(dp1
I0
F0.070000000000000007
sI1
F0.040000000000000001
sI2
F0.050000000000000003
sI3
F0.040000000000000001
sI4
F0.040000000000000001
sI5
F0.02
sI6
F0.02
sI7
F0.02
sI8
F0.01
sI9
F0
sI10
F0.01
sI11
F0
sI12
F0
sI13
F0
sI14
F0
sI15
F0
sI16
F0
sI17
F0
sI18
F0
sI19
F0
sI20
F0
sI21
F0
sI22
F0
sI23
F0
sI24
F0
sI25
F0
sI26
F0
sI27
F0
sI28
F0
sI29
F0
s.